; Function Attrs: nounwind uwtable
define internal ptr @async_gen_asend(ptr noundef %0, ptr noundef %1) #2 {
  %3 = tail call fastcc i32 @async_gen_init_hooks(ptr noundef %0)
  %.not = icmp eq i32 %3, 0
  br i1 %.not, label %4, label %async_gen_asend_new.exit

4:                                                ; preds = %2
  %5 = tail call align 8 ptr @llvm.threadlocal.address.p0(ptr align 8 @_Py_tss_tstate)
  %6 = load ptr, ptr %5, align 8, !tbaa !39
  %7 = getelementptr inbounds nuw i8, ptr %6, i64 16
  %8 = load ptr, ptr %7, align 8, !tbaa !41
  %9 = getelementptr inbounds nuw i8, ptr %8, i64 11512
  %10 = load ptr, ptr %9, align 8, !tbaa !165
  %.not.i.i.i = icmp eq ptr %10, null
  br i1 %.not.i.i.i, label %15, label %_PyFreeList_Pop.exit.i

_PyFreeList_Pop.exit.i:                           ; preds = %4
  %11 = load ptr, ptr %10, align 8, !tbaa !143
  store ptr %11, ptr %9, align 8, !tbaa !165
  %12 = getelementptr inbounds nuw i8, ptr %8, i64 11520
  %13 = load i64, ptr %12, align 8, !tbaa !164
  %14 = add i64 %13, -1
  store i64 %14, ptr %12, align 8, !tbaa !164
  tail call void @_Py_NewReference(ptr noundef nonnull %10) #8
  br label %18

15:                                               ; preds = %4
  %16 = tail call ptr @_PyObject_GC_New(ptr noundef nonnull @_PyAsyncGenASend_Type) #8
  %17 = icmp eq ptr %16, null
  br i1 %17, label %async_gen_asend_new.exit, label %18

18:                                               ; preds = %15, %_PyFreeList_Pop.exit.i
  %.0.i = phi ptr [ %16, %15 ], [ %10, %_PyFreeList_Pop.exit.i ]
  %19 = load i32, ptr %0, align 8, !tbaa !4
  %20 = icmp slt i32 %19, 0
  br i1 %20, label %_Py_NewRef.exit.i, label %21

21:                                               ; preds = %18
  %22 = add nuw i32 %19, 1
  store i32 %22, ptr %0, align 8, !tbaa !4
  br label %_Py_NewRef.exit.i

_Py_NewRef.exit.i:                                ; preds = %21, %18
  %23 = getelementptr inbounds nuw i8, ptr %.0.i, i64 16
  store ptr %0, ptr %23, align 8, !tbaa !166
  %.not.i.i13.i = icmp eq ptr %1, null
  br i1 %.not.i.i13.i, label %_Py_XNewRef.exit.i, label %24

24:                                               ; preds = %_Py_NewRef.exit.i
  %25 = load i32, ptr %1, align 8, !tbaa !4
  %26 = icmp slt i32 %25, 0
  br i1 %26, label %_Py_XNewRef.exit.i, label %27

27:                                               ; preds = %24
  %28 = add nuw i32 %25, 1
  store i32 %28, ptr %1, align 8, !tbaa !4
  br label %_Py_XNewRef.exit.i

_Py_XNewRef.exit.i:                               ; preds = %27, %24, %_Py_NewRef.exit.i
  %29 = getelementptr inbounds nuw i8, ptr %.0.i, i64 24
  store ptr %1, ptr %29, align 8, !tbaa !168
  %30 = getelementptr inbounds nuw i8, ptr %.0.i, i64 32
  store i32 0, ptr %30, align 8, !tbaa !169
  %31 = getelementptr i8, ptr %.0.i, i64 -16
  %32 = load ptr, ptr %5, align 8, !tbaa !39
  %33 = getelementptr inbounds nuw i8, ptr %32, i64 16
  %34 = load ptr, ptr %33, align 8, !tbaa !41
  %35 = getelementptr inbounds nuw i8, ptr %34, i64 7424
  %36 = getelementptr inbounds nuw i8, ptr %34, i64 7432
  %37 = load i64, ptr %36, align 8, !tbaa !35
  %38 = inttoptr i64 %37 to ptr
  %39 = ptrtoint ptr %31 to i64
  %40 = load i64, ptr %38, align 8, !tbaa !37
  %41 = and i64 %40, 3
  %42 = or i64 %41, %39
  store i64 %42, ptr %38, align 8, !tbaa !37
  %43 = getelementptr i8, ptr %.0.i, i64 -8
  %44 = load i64, ptr %43, align 8, !tbaa !35
  %45 = and i64 %44, 3
  %46 = or i64 %45, %37
  store i64 %46, ptr %43, align 8, !tbaa !35
  %47 = getelementptr inbounds nuw i8, ptr %34, i64 7632
  %48 = load i32, ptr %47, align 8, !tbaa !47
  %49 = xor i32 %48, 1
  %50 = sext i32 %49 to i64
  %51 = ptrtoint ptr %35 to i64
  %52 = or i64 %50, %51
  store i64 %52, ptr %31, align 8, !tbaa !37
  store i64 %39, ptr %36, align 8, !tbaa !35
  br label %async_gen_asend_new.exit

async_gen_asend_new.exit:                         ; preds = %_Py_XNewRef.exit.i, %15, %2
  %.0 = phi ptr [ null, %2 ], [ %.0.i, %_Py_XNewRef.exit.i ], [ null, %15 ]
  ret ptr %.0
}